target datalayout = "e-m:e-p270:32:32-p271:32:32-p272:64:64-i64:64-i128:128-f80:128-n8:16:32:64-S128"
target triple = "x86_64-pc-linux-gnu"

%struct.Ivy_FraigMan_t_ = type { ptr, i64, i64, ptr, ptr, i32, ptr, ptr, i32, ptr, ptr, %struct.Ivy_FraigList_t_, %struct.Ivy_FraigList_t_, i32, ptr, i32, ptr, ptr, i32, i32, i32, i32, i32, i32, i32, i32, i32, i32, i32, i32, i32, i64, i64, i64, i64, i64, i64, i64, i64, i64, i64 }
%struct.Ivy_FraigList_t_ = type { ptr, ptr, i32 }

; Function Attrs: nounwind uwtable
define void @Ivy_FraigCleanPatScores(ptr noundef %0) #0 {
  %2 = alloca ptr, align 8
  %3 = alloca i32, align 4
  %4 = alloca i32, align 4
  store ptr %0, ptr %2, align 8, !tbaa !60
  call void @llvm.lifetime.start.p0(i64 4, ptr %3) #12
  call void @llvm.lifetime.start.p0(i64 4, ptr %4) #12
  %5 = load ptr, ptr %2, align 8, !tbaa !60
  %6 = getelementptr inbounds nuw %struct.Ivy_FraigMan_t_, ptr %5, i32 0, i32 5
  %7 = load i32, ptr %6, align 8, !tbaa !100
  %8 = mul nsw i32 %7, 32
  store i32 %8, ptr %4, align 4, !tbaa !44
  store i32 0, ptr %3, align 4, !tbaa !44
  br label %9

9:                                                ; preds = %20, %1
  %10 = load i32, ptr %3, align 4, !tbaa !44
  %11 = load i32, ptr %4, align 4, !tbaa !44
  %12 = icmp slt i32 %10, %11
  br i1 %12, label %13, label %23

13:                                               ; preds = %9
  %14 = load ptr, ptr %2, align 8, !tbaa !60
  %15 = getelementptr inbounds nuw %struct.Ivy_FraigMan_t_, ptr %14, i32 0, i32 10
  %16 = load ptr, ptr %15, align 8, !tbaa !112
  %17 = load i32, ptr %3, align 4, !tbaa !44
  %18 = sext i32 %17 to i64
  %19 = getelementptr inbounds i32, ptr %16, i64 %18
  store i32 0, ptr %19, align 4, !tbaa !44
  br label %20

20:                                               ; preds = %13
  %21 = load i32, ptr %3, align 4, !tbaa !44
  %22 = add nsw i32 %21, 1
  store i32 %22, ptr %3, align 4, !tbaa !44
  br label %9, !llvm.loop !200

23:                                               ; preds = %9
  call void @llvm.lifetime.end.p0(i64 4, ptr %4) #12
  call void @llvm.lifetime.end.p0(i64 4, ptr %3) #12
  ret void
}