; Function Attrs: mustprogress nofree norecurse nosync nounwind willreturn memory(write, argmem: readwrite, inaccessiblemem: none) uwtable
define void @Ivy_FraigCleanPatScores(ptr noundef readonly captures(none) %0) local_unnamed_addr #12 {
  %2 = getelementptr inbounds nuw i8, ptr %0, i64 40
  %3 = load i32, ptr %2, align 8, !tbaa !96
  %4 = icmp sgt i32 %3, 0
  br i1 %4, label %.lr.ph, label %._crit_edge

.lr.ph:                                           ; preds = %1
  %5 = shl i32 %3, 5
  %6 = getelementptr inbounds nuw i8, ptr %0, i64 80
  %7 = load ptr, ptr %6, align 8, !tbaa !110
  %smax = tail call i32 @llvm.smax.i32(i32 %5, i32 1)
  %8 = zext nneg i32 %smax to i64
  %9 = shl nuw nsw i64 %8, 2
  tail call void @llvm.memset.p0.i64(ptr noundef nonnull align 4 dereferenceable(1) %7, i8 0, i64 %9, i1 false), !tbaa !38
  br label %._crit_edge

._crit_edge:                                      ; preds = %.lr.ph, %1
  ret void
}